target datalayout = "e-m:e-p270:32:32-p271:32:32-p272:64:64-i64:64-i128:128-f80:128-n8:16:32:64-S128"
target triple = "x86_64-pc-linux-gnu"

%struct.yyParser = type { ptr, i32, ptr, [100 x %struct.yyStackEntry], ptr }
%struct.yyStackEntry = type { i8, i8, %union.YYMINORTYPE }
%union.YYMINORTYPE = type { %struct.token_t, [40 x i8] }
%struct.token_t = type { i64, i64, i64, i64 }

; Function Attrs: nounwind null_pointer_is_valid sspstrong uwtable
define internal void @yy_destructor(ptr noundef %0, i8 noundef zeroext %1, ptr noundef %2) #0 {
  %4 = alloca ptr, align 8
  %5 = alloca i8, align 1
  %6 = alloca ptr, align 8
  %7 = alloca ptr, align 8
  store ptr %0, ptr %4, align 8
  store i8 %1, ptr %5, align 1
  store ptr %2, ptr %6, align 8
  call void @llvm.lifetime.start.p0(i64 8, ptr %7) #10
  %8 = load ptr, ptr %4, align 8
  %9 = getelementptr inbounds nuw %struct.yyParser, ptr %8, i32 0, i32 2
  %10 = load ptr, ptr %9, align 8
  store ptr %10, ptr %7, align 8
  %11 = load i8, ptr %5, align 1
  %12 = zext i8 %11 to i32
  switch i32 %12, label %14 [
    i32 1, label %13
    i32 2, label %13
    i32 3, label %13
    i32 4, label %13
    i32 5, label %13
    i32 6, label %13
    i32 7, label %13
    i32 8, label %13
    i32 9, label %13
    i32 10, label %13
    i32 11, label %13
    i32 12, label %13
    i32 13, label %13
    i32 14, label %13
    i32 15, label %13
    i32 16, label %13
    i32 17, label %13
    i32 18, label %13
    i32 19, label %13
  ]

13:                                               ; preds = %3, %3, %3, %3, %3, %3, %3, %3, %3, %3, %3, %3, %3, %3, %3, %3, %3, %3, %3
  br label %15

14:                                               ; preds = %3
  br label %15

15:                                               ; preds = %14, %13
  call void @llvm.lifetime.end.p0(i64 8, ptr %7) #10
  ret void
}

; Function Attrs: null_pointer_is_valid sspstrong uwtable
define internal void @yy_pop_parser_stack(ptr noundef %0) #2 {
  %2 = alloca ptr, align 8
  %3 = alloca ptr, align 8
  store ptr %0, ptr %2, align 8
  call void @llvm.lifetime.start.p0(i64 8, ptr %3) #10
  %4 = load ptr, ptr %2, align 8
  %5 = getelementptr inbounds nuw %struct.yyParser, ptr %4, i32 0, i32 0
  %6 = load ptr, ptr %5, align 8
  %7 = getelementptr %struct.yyStackEntry, ptr %6, i32 -1
  store ptr %7, ptr %5, align 8
  store ptr %6, ptr %3, align 8
  %8 = load ptr, ptr %2, align 8
  %9 = load ptr, ptr %3, align 8
  %10 = getelementptr inbounds nuw %struct.yyStackEntry, ptr %9, i32 0, i32 1
  %11 = load i8, ptr %10, align 1
  %12 = load ptr, ptr %3, align 8
  %13 = getelementptr inbounds nuw %struct.yyStackEntry, ptr %12, i32 0, i32 2
  call void @yy_destructor(ptr noundef %8, i8 noundef zeroext %11, ptr noundef %13)
  call void @llvm.lifetime.end.p0(i64 8, ptr %3) #10
  ret void
}

; Function Attrs: null_pointer_is_valid sspstrong uwtable
define hidden void @BusmasterParserFinalize(ptr noundef %0) #2 {
  %2 = alloca ptr, align 8
  %3 = alloca ptr, align 8
  store ptr %0, ptr %2, align 8
  call void @llvm.lifetime.start.p0(i64 8, ptr %3) #10
  %4 = load ptr, ptr %2, align 8
  store ptr %4, ptr %3, align 8
  br label %5

5:                                                ; preds = %13, %1
  %6 = load ptr, ptr %3, align 8
  %7 = getelementptr inbounds nuw %struct.yyParser, ptr %6, i32 0, i32 0
  %8 = load ptr, ptr %7, align 8
  %9 = load ptr, ptr %3, align 8
  %10 = getelementptr inbounds nuw %struct.yyParser, ptr %9, i32 0, i32 3
  %11 = getelementptr inbounds [100 x %struct.yyStackEntry], ptr %10, i64 0, i64 0
  %12 = icmp ugt ptr %8, %11
  br i1 %12, label %13, label %15

13:                                               ; preds = %5
  %14 = load ptr, ptr %3, align 8
  call void @yy_pop_parser_stack(ptr noundef %14)
  br label %5, !llvm.loop !6

15:                                               ; preds = %5
  call void @llvm.lifetime.end.p0(i64 8, ptr %3) #10
  ret void
}