; Function Attrs: nofree norecurse nosync nounwind null_pointer_is_valid sspstrong memory(argmem: readwrite) uwtable
define hidden void @BusmasterParserFinalize(ptr noundef captures(address) %0) local_unnamed_addr #3 {
  %2 = getelementptr inbounds nuw i8, ptr %0, i64 24
  %.promoted = load ptr, ptr %0, align 8
  %3 = icmp ugt ptr %.promoted, %2
  br i1 %3, label %.lr.ph, label %7

.lr.ph:                                           ; preds = %1, %.lr.ph
  %4 = phi ptr [ %5, %.lr.ph ], [ %.promoted, %1 ]
  %5 = getelementptr i8, ptr %4, i64 -80
  %6 = icmp ugt ptr %5, %2
  br i1 %6, label %.lr.ph, label %._crit_edge, !llvm.loop !6

._crit_edge:                                      ; preds = %.lr.ph
  store ptr %5, ptr %0, align 8
  br label %7

7:                                                ; preds = %._crit_edge, %1
  ret void
}